target datalayout = "e-m:e-p270:32:32-p271:32:32-p272:64:64-i64:64-i128:128-f80:128-n8:16:32:64-S128"
target triple = "x86_64-pc-linux-gnu"

%struct.StringInfoData = type { ptr, i32, i32, i32 }

; Function Attrs: nounwind uwtable
define internal ptr @range_bound_escape(ptr noundef %0) #0 {
  %2 = alloca ptr, align 8
  %3 = alloca i8, align 1
  %4 = alloca ptr, align 8
  %5 = alloca %struct.StringInfoData, align 8
  %6 = alloca i8, align 1
  %7 = alloca i32, align 4
  %8 = alloca i8, align 1
  store ptr %0, ptr %2, align 8
  call void @llvm.lifetime.start.p0(i64 1, ptr %3) #10
  call void @llvm.lifetime.start.p0(i64 8, ptr %4) #10
  call void @llvm.lifetime.start.p0(i64 24, ptr %5) #10
  call void @initStringInfo(ptr noundef %5)
  %9 = load ptr, ptr %2, align 8
  %10 = getelementptr inbounds i8, ptr %9, i64 0
  %11 = load i8, ptr %10, align 1
  %12 = sext i8 %11 to i32
  %13 = icmp eq i32 %12, 0
  %14 = zext i1 %13 to i8
  store i8 %14, ptr %3, align 1
  %15 = load ptr, ptr %2, align 8
  store ptr %15, ptr %4, align 8
  br label %16

16:                                               ; preds = %66, %1
  %17 = load ptr, ptr %4, align 8
  %18 = load i8, ptr %17, align 1
  %19 = icmp ne i8 %18, 0
  br i1 %19, label %20, label %69

20:                                               ; preds = %16
  call void @llvm.lifetime.start.p0(i64 1, ptr %6) #10
  %21 = load ptr, ptr %4, align 8
  %22 = load i8, ptr %21, align 1
  store i8 %22, ptr %6, align 1
  %23 = load i8, ptr %6, align 1
  %24 = sext i8 %23 to i32
  %25 = icmp eq i32 %24, 34
  br i1 %25, label %61, label %26

26:                                               ; preds = %20
  %27 = load i8, ptr %6, align 1
  %28 = sext i8 %27 to i32
  %29 = icmp eq i32 %28, 92
  br i1 %29, label %61, label %30

30:                                               ; preds = %26
  %31 = load i8, ptr %6, align 1
  %32 = sext i8 %31 to i32
  %33 = icmp eq i32 %32, 40
  br i1 %33, label %61, label %34

34:                                               ; preds = %30
  %35 = load i8, ptr %6, align 1
  %36 = sext i8 %35 to i32
  %37 = icmp eq i32 %36, 41
  br i1 %37, label %61, label %38

38:                                               ; preds = %34
  %39 = load i8, ptr %6, align 1
  %40 = sext i8 %39 to i32
  %41 = icmp eq i32 %40, 91
  br i1 %41, label %61, label %42

42:                                               ; preds = %38
  %43 = load i8, ptr %6, align 1
  %44 = sext i8 %43 to i32
  %45 = icmp eq i32 %44, 93
  br i1 %45, label %61, label %46

46:                                               ; preds = %42
  %47 = load i8, ptr %6, align 1
  %48 = sext i8 %47 to i32
  %49 = icmp eq i32 %48, 44
  br i1 %49, label %61, label %50

50:                                               ; preds = %46
  %51 = call ptr @__ctype_b_loc() #12
  %52 = load ptr, ptr %51, align 8
  %53 = load i8, ptr %6, align 1
  %54 = zext i8 %53 to i32
  %55 = sext i32 %54 to i64
  %56 = getelementptr inbounds i16, ptr %52, i64 %55
  %57 = load i16, ptr %56, align 2
  %58 = zext i16 %57 to i32
  %59 = and i32 %58, 8192
  %60 = icmp ne i32 %59, 0
  br i1 %60, label %61, label %62

61:                                               ; preds = %50, %46, %42, %38, %34, %30, %26, %20
  store i8 1, ptr %3, align 1
  store i32 2, ptr %7, align 4
  br label %63

62:                                               ; preds = %50
  store i32 0, ptr %7, align 4
  br label %63

63:                                               ; preds = %62, %61
  call void @llvm.lifetime.end.p0(i64 1, ptr %6) #10
  %64 = load i32, ptr %7, align 4
  switch i32 %64, label %103 [
    i32 0, label %65
    i32 2, label %69
  ]

65:                                               ; preds = %63
  br label %66

66:                                               ; preds = %65
  %67 = load ptr, ptr %4, align 8
  %68 = getelementptr inbounds nuw i8, ptr %67, i32 1
  store ptr %68, ptr %4, align 8
  br label %16, !llvm.loop !11

69:                                               ; preds = %63, %16
  %70 = load i8, ptr %3, align 1, !range !7, !noundef !8
  %71 = trunc i8 %70 to i1
  br i1 %71, label %72, label %73

72:                                               ; preds = %69
  call void @appendStringInfoChar(ptr noundef %5, i8 noundef signext 34)
  br label %73

73:                                               ; preds = %72, %69
  %74 = load ptr, ptr %2, align 8
  store ptr %74, ptr %4, align 8
  br label %75

75:                                               ; preds = %93, %73
  %76 = load ptr, ptr %4, align 8
  %77 = load i8, ptr %76, align 1
  %78 = icmp ne i8 %77, 0
  br i1 %78, label %79, label %96

79:                                               ; preds = %75
  call void @llvm.lifetime.start.p0(i64 1, ptr %8) #10
  %80 = load ptr, ptr %4, align 8
  %81 = load i8, ptr %80, align 1
  store i8 %81, ptr %8, align 1
  %82 = load i8, ptr %8, align 1
  %83 = sext i8 %82 to i32
  %84 = icmp eq i32 %83, 34
  br i1 %84, label %89, label %85

85:                                               ; preds = %79
  %86 = load i8, ptr %8, align 1
  %87 = sext i8 %86 to i32
  %88 = icmp eq i32 %87, 92
  br i1 %88, label %89, label %91

89:                                               ; preds = %85, %79
  %90 = load i8, ptr %8, align 1
  call void @appendStringInfoChar(ptr noundef %5, i8 noundef signext %90)
  br label %91

91:                                               ; preds = %89, %85
  %92 = load i8, ptr %8, align 1
  call void @appendStringInfoChar(ptr noundef %5, i8 noundef signext %92)
  call void @llvm.lifetime.end.p0(i64 1, ptr %8) #10
  br label %93

93:                                               ; preds = %91
  %94 = load ptr, ptr %4, align 8
  %95 = getelementptr inbounds nuw i8, ptr %94, i32 1
  store ptr %95, ptr %4, align 8
  br label %75, !llvm.loop !12

96:                                               ; preds = %75
  %97 = load i8, ptr %3, align 1, !range !7, !noundef !8
  %98 = trunc i8 %97 to i1
  br i1 %98, label %99, label %100

99:                                               ; preds = %96
  call void @appendStringInfoChar(ptr noundef %5, i8 noundef signext 34)
  br label %100

100:                                              ; preds = %99, %96
  %101 = getelementptr inbounds nuw %struct.StringInfoData, ptr %5, i32 0, i32 0
  %102 = load ptr, ptr %101, align 8
  store i32 1, ptr %7, align 4
  call void @llvm.lifetime.end.p0(i64 24, ptr %5) #10
  call void @llvm.lifetime.end.p0(i64 8, ptr %4) #10
  call void @llvm.lifetime.end.p0(i64 1, ptr %3) #10
  ret ptr %102

103:                                              ; preds = %63
  unreachable
}