; Function Attrs: nounwind uwtable
define internal fastcc ptr @range_bound_escape(ptr noundef readonly captures(none) %0) unnamed_addr #0 {
  %2 = alloca %struct.StringInfoData, align 8
  call void @llvm.lifetime.start.p0(i64 24, ptr nonnull %2) #14
  call void @initStringInfo(ptr noundef nonnull %2) #14
  %3 = load i8, ptr %0, align 1
  %4 = icmp eq i8 %3, 0
  br label %5

5:                                                ; preds = %14, %1
  %6 = phi i8 [ %.pr, %14 ], [ %3, %1 ]
  %.044 = phi ptr [ %15, %14 ], [ %0, %1 ]
  switch i8 %6, label %7 [
    i8 0, label %16
    i8 93, label %.thread54
    i8 92, label %.thread54
    i8 91, label %.thread54
    i8 44, label %.thread54
    i8 41, label %.thread54
    i8 40, label %.thread54
    i8 34, label %.thread54
  ]

7:                                                ; preds = %5
  %8 = tail call ptr @__ctype_b_loc() #15
  %9 = load ptr, ptr %8, align 8
  %10 = zext i8 %6 to i64
  %11 = getelementptr inbounds nuw i16, ptr %9, i64 %10
  %12 = load i16, ptr %11, align 2
  %13 = and i16 %12, 8192
  %.not48 = icmp eq i16 %13, 0
  br i1 %.not48, label %14, label %.thread54

14:                                               ; preds = %7
  %15 = getelementptr inbounds nuw i8, ptr %.044, i64 1
  %.pr = load i8, ptr %15, align 1
  br label %5, !llvm.loop !22

16:                                               ; preds = %5
  br i1 %4, label %.thread54, label %17

.thread54:                                        ; preds = %7, %5, %5, %5, %5, %5, %5, %5, %16
  call void @appendStringInfoChar(ptr noundef nonnull %2, i8 noundef signext 34) #14
  br label %17

17:                                               ; preds = %.thread54, %16
  %18 = phi i1 [ true, %.thread54 ], [ false, %16 ]
  br label %19

19:                                               ; preds = %22, %17
  %.145 = phi ptr [ %0, %17 ], [ %23, %22 ]
  %20 = load i8, ptr %.145, align 1
  switch i8 %20, label %22 [
    i8 0, label %24
    i8 92, label %21
    i8 34, label %21
  ]

21:                                               ; preds = %19, %19
  call void @appendStringInfoChar(ptr noundef nonnull %2, i8 noundef signext %20) #14
  br label %22

22:                                               ; preds = %19, %21
  call void @appendStringInfoChar(ptr noundef nonnull %2, i8 noundef signext %20) #14
  %23 = getelementptr inbounds nuw i8, ptr %.145, i64 1
  br label %19, !llvm.loop !23

24:                                               ; preds = %19
  br i1 %18, label %25, label %26

25:                                               ; preds = %24
  call void @appendStringInfoChar(ptr noundef nonnull %2, i8 noundef signext 34) #14
  br label %26

26:                                               ; preds = %25, %24
  %27 = load ptr, ptr %2, align 8
  call void @llvm.lifetime.end.p0(i64 24, ptr nonnull %2) #14
  ret ptr %27
}